; ModuleID = '51/804.c'
source_filename = "51/804.c"
target datalayout = "e-m:e-p270:32:32-p271:32:32-p272:64:64-i64:64-f80:128-n8:16:32:64-S128"
target triple = "x86_64-pc-linux-gnu"

@.str = private unnamed_addr constant [3 x i8] c"%d\00", align 1
@.str.1 = private unnamed_addr constant [3 x i8] c"%s\00", align 1
@a = common dso_local global [500 x i8] zeroinitializer, align 16
@post = common dso_local global [500 x i32] zeroinitializer, align 16
@.str.2 = private unnamed_addr constant [4 x i8] c"NO\0A\00", align 1
@.str.3 = private unnamed_addr constant [4 x i8] c"%d\0A\00", align 1
@.str.4 = private unnamed_addr constant [3 x i8] c"%c\00", align 1
@.str.5 = private unnamed_addr constant [4 x i8] c"%c\0A\00", align 1

; Function Attrs: noinline nounwind uwtable
define dso_local i32 @main() #0 {
  %1 = alloca i32, align 4
  %2 = alloca i32, align 4
  %3 = alloca i32, align 4
  %4 = alloca i32, align 4
  %5 = alloca i32, align 4
  %6 = alloca i32, align 4
  %7 = alloca i32, align 4
  %8 = alloca i32, align 4
  %9 = alloca i32, align 4
  %10 = alloca i32, align 4
  store i32 0, i32* %1, align 4
  store i32 1, i32* %6, align 4
  store i32 0, i32* %8, align 4
  store i32 0, i32* %9, align 4
  store i32 0, i32* %10, align 4
  %11 = call i32 (i8*, ...) @__isoc99_scanf(i8* getelementptr inbounds ([3 x i8], [3 x i8]* @.str, i64 0, i64 0), i32* %5)
  %12 = call i32 (i8*, ...) @__isoc99_scanf(i8* getelementptr inbounds ([3 x i8], [3 x i8]* @.str.1, i64 0, i64 0), i8* getelementptr inbounds ([500 x i8], [500 x i8]* @a, i64 0, i64 0))
  store i32 0, i32* %2, align 4
  br label %13

13:                                               ; preds = %78, %0
  %14 = load i32, i32* %2, align 4
  %15 = sext i32 %14 to i64
  %16 = call i64 @strlen(i8* getelementptr inbounds ([500 x i8], [500 x i8]* @a, i64 0, i64 0)) #3
  %17 = load i32, i32* %5, align 4
  %18 = sext i32 %17 to i64
  %19 = sub i64 %16, %18
  %20 = icmp ule i64 %15, %19
  br i1 %20, label %21, label %81

21:                                               ; preds = %13
  %22 = load i32, i32* %2, align 4
  store i32 %22, i32* %3, align 4
  br label %23

23:                                               ; preds = %64, %21
  %24 = load i32, i32* %3, align 4
  %25 = sext i32 %24 to i64
  %26 = call i64 @strlen(i8* getelementptr inbounds ([500 x i8], [500 x i8]* @a, i64 0, i64 0)) #3
  %27 = load i32, i32* %5, align 4
  %28 = sext i32 %27 to i64
  %29 = sub i64 %26, %28
  %30 = icmp ule i64 %25, %29
  br i1 %30, label %31, label %67

31:                                               ; preds = %23
  store i32 0, i32* %4, align 4
  br label %32

32:                                               ; preds = %54, %31
  %33 = load i32, i32* %4, align 4
  %34 = load i32, i32* %5, align 4
  %35 = icmp slt i32 %33, %34
  br i1 %35, label %36, label %57

36:                                               ; preds = %32
  %37 = load i32, i32* %2, align 4
  %38 = load i32, i32* %4, align 4
  %39 = add nsw i32 %37, %38
  %40 = sext i32 %39 to i64
  %41 = getelementptr inbounds [500 x i8], [500 x i8]* @a, i64 0, i64 %40
  %42 = load i8, i8* %41, align 1
  %43 = sext i8 %42 to i32
  %44 = load i32, i32* %3, align 4
  %45 = load i32, i32* %4, align 4
  %46 = add nsw i32 %44, %45
  %47 = sext i32 %46 to i64
  %48 = getelementptr inbounds [500 x i8], [500 x i8]* @a, i64 0, i64 %47
  %49 = load i8, i8* %48, align 1
  %50 = sext i8 %49 to i32
  %51 = icmp ne i32 %43, %50
  br i1 %51, label %52, label %53

52:                                               ; preds = %36
  store i32 0, i32* %6, align 4
  br label %57

53:                                               ; preds = %36
  br label %54

54:                                               ; preds = %53
  %55 = load i32, i32* %4, align 4
  %56 = add nsw i32 %55, 1
  store i32 %56, i32* %4, align 4
  br label %32

57:                                               ; preds = %52, %32
  %58 = load i32, i32* %6, align 4
  %59 = icmp eq i32 %58, 1
  br i1 %59, label %60, label %63

60:                                               ; preds = %57
  %61 = load i32, i32* %9, align 4
  %62 = add nsw i32 %61, 1
  store i32 %62, i32* %9, align 4
  br label %63

63:                                               ; preds = %60, %57
  br label %64

64:                                               ; preds = %63
  %65 = load i32, i32* %3, align 4
  %66 = add nsw i32 %65, 1
  store i32 %66, i32* %3, align 4
  store i32 1, i32* %6, align 4
  br label %23

67:                                               ; preds = %23
  %68 = load i32, i32* %9, align 4
  %69 = load i32, i32* %2, align 4
  %70 = sext i32 %69 to i64
  %71 = getelementptr inbounds [500 x i32], [500 x i32]* @post, i64 0, i64 %70
  store i32 %68, i32* %71, align 4
  %72 = load i32, i32* %9, align 4
  %73 = load i32, i32* %8, align 4
  %74 = icmp sge i32 %72, %73
  br i1 %74, label %75, label %77

75:                                               ; preds = %67
  %76 = load i32, i32* %9, align 4
  store i32 %76, i32* %8, align 4
  br label %77

77:                                               ; preds = %75, %67
  br label %78

78:                                               ; preds = %77
  %79 = load i32, i32* %2, align 4
  %80 = add nsw i32 %79, 1
  store i32 %80, i32* %2, align 4
  store i32 0, i32* %9, align 4
  br label %13

81:                                               ; preds = %13
  %82 = load i32, i32* %8, align 4
  %83 = icmp sle i32 %82, 1
  br i1 %83, label %84, label %86

84:                                               ; preds = %81
  %85 = call i32 (i8*, ...) @printf(i8* getelementptr inbounds ([4 x i8], [4 x i8]* @.str.2, i64 0, i64 0))
  br label %131

86:                                               ; preds = %81
  %87 = load i32, i32* %8, align 4
  %88 = call i32 (i8*, ...) @printf(i8* getelementptr inbounds ([4 x i8], [4 x i8]* @.str.3, i64 0, i64 0), i32 %87)
  store i32 0, i32* %3, align 4
  br label %89

89:                                               ; preds = %127, %86
  %90 = load i32, i32* %3, align 4
  %91 = load i32, i32* %2, align 4
  %92 = icmp slt i32 %90, %91
  br i1 %92, label %93, label %130

93:                                               ; preds = %89
  %94 = load i32, i32* %3, align 4
  %95 = sext i32 %94 to i64
  %96 = getelementptr inbounds [500 x i32], [500 x i32]* @post, i64 0, i64 %95
  %97 = load i32, i32* %96, align 4
  %98 = load i32, i32* %8, align 4
  %99 = icmp eq i32 %97, %98
  br i1 %99, label %100, label %126

100:                                              ; preds = %93
  %101 = load i32, i32* %3, align 4
  store i32 %101, i32* %4, align 4
  br label %102

102:                                              ; preds = %116, %100
  %103 = load i32, i32* %4, align 4
  %104 = load i32, i32* %3, align 4
  %105 = load i32, i32* %5, align 4
  %106 = add nsw i32 %104, %105
  %107 = sub nsw i32 %106, 1
  %108 = icmp slt i32 %103, %107
  br i1 %108, label %109, label %119

109:                                              ; preds = %102
  %110 = load i32, i32* %4, align 4
  %111 = sext i32 %110 to i64
  %112 = getelementptr inbounds [500 x i8], [500 x i8]* @a, i64 0, i64 %111
  %113 = load i8, i8* %112, align 1
  %114 = sext i8 %113 to i32
  %115 = call i32 (i8*, ...) @printf(i8* getelementptr inbounds ([3 x i8], [3 x i8]* @.str.4, i64 0, i64 0), i32 %114)
  br label %116

116:                                              ; preds = %109
  %117 = load i32, i32* %4, align 4
  %118 = add nsw i32 %117, 1
  store i32 %118, i32* %4, align 4
  br label %102

119:                                              ; preds = %102
  %120 = load i32, i32* %4, align 4
  %121 = sext i32 %120 to i64
  %122 = getelementptr inbounds [500 x i8], [500 x i8]* @a, i64 0, i64 %121
  %123 = load i8, i8* %122, align 1
  %124 = sext i8 %123 to i32
  %125 = call i32 (i8*, ...) @printf(i8* getelementptr inbounds ([4 x i8], [4 x i8]* @.str.5, i64 0, i64 0), i32 %124)
  br label %126

126:                                              ; preds = %119, %93
  br label %127

127:                                              ; preds = %126
  %128 = load i32, i32* %3, align 4
  %129 = add nsw i32 %128, 1
  store i32 %129, i32* %3, align 4
  br label %89

130:                                              ; preds = %89
  br label %131

131:                                              ; preds = %130, %84
  ret i32 0
}

declare dso_local i32 @__isoc99_scanf(i8*, ...) #1

; Function Attrs: nounwind readonly
declare dso_local i64 @strlen(i8*) #2

declare dso_local i32 @printf(i8*, ...) #1


!llvm.module.flags = !{!0}
!llvm.ident = !{!1}

!0 = !{i32 1, !"wchar_size", i32 4}
!1 = !{!"clang version 10.0.0-4ubuntu1 "}
